; Function Attrs: mustprogress nofree norecurse nosync nounwind willreturn memory(read, inaccessiblemem: none) uwtable
define hidden noundef zeroext i1 @_ZNK5array6solver17is_map_combinatorEP4expr(ptr nocapture noundef nonnull readonly align 8 dereferenceable(536) %this, ptr nocapture noundef readonly %map) local_unnamed_addr #6 align 2 {
entry:
  %a = getelementptr inbounds i8, ptr %this, i64 112
  %0 = load i32, ptr %a, align 8
  %m_kind.i.i.i = getelementptr inbounds i8, ptr %map, i64 4
  %bf.load.i.i.i = load i32, ptr %m_kind.i.i.i, align 4
  %bf.clear.i.i.i = and i32 %bf.load.i.i.i, 65535
  %cmp.i.i = icmp eq i32 %bf.clear.i.i.i, 0
  br i1 %cmp.i.i, label %land.rhs.i.i, label %lor.end

land.rhs.i.i:                                     ; preds = %entry
  %m_decl.i.i.i = getelementptr inbounds i8, ptr %map, i64 16
  %1 = load ptr, ptr %m_decl.i.i.i, align 8
  %m_info.i.i.i.i = getelementptr inbounds i8, ptr %1, i64 24
  %2 = load ptr, ptr %m_info.i.i.i.i, align 8
  %tobool.not.i.i.i.i = icmp eq ptr %2, null
  br i1 %tobool.not.i.i.i.i, label %lor.end, label %_ZNK17array_recognizers6is_mapEP4expr.exit

_ZNK17array_recognizers6is_mapEP4expr.exit:       ; preds = %land.rhs.i.i
  %3 = load i32, ptr %2, align 8
  %cmp.i.i.i.i.i = icmp eq i32 %3, %0
  %m_kind.i.i.i.i.i = getelementptr inbounds i8, ptr %2, i64 4
  %4 = load i32, ptr %m_kind.i.i.i.i.i, align 4
  %cmp2.i.i.i.i.i = icmp eq i32 %4, 5
  %5 = select i1 %cmp.i.i.i.i.i, i1 %cmp2.i.i.i.i.i, i1 false
  br i1 %5, label %lor.end, label %_ZNK17array_recognizers8is_unionEP4expr.exit

_ZNK17array_recognizers8is_unionEP4expr.exit:     ; preds = %_ZNK17array_recognizers6is_mapEP4expr.exit
  %6 = load i32, ptr %2, align 8
  %cmp.i.i.i.i.i14 = icmp eq i32 %6, %0
  %m_kind.i.i.i.i.i15 = getelementptr inbounds i8, ptr %2, i64 4
  %7 = load i32, ptr %m_kind.i.i.i.i.i15, align 4
  %cmp2.i.i.i.i.i16 = icmp eq i32 %7, 6
  %8 = select i1 %cmp.i.i.i.i.i14, i1 %cmp2.i.i.i.i.i16, i1 false
  br i1 %8, label %lor.end, label %_ZNK17array_recognizers12is_intersectEP4expr.exit

_ZNK17array_recognizers12is_intersectEP4expr.exit: ; preds = %_ZNK17array_recognizers8is_unionEP4expr.exit
  %9 = load i32, ptr %2, align 8
  %cmp.i.i.i.i.i26 = icmp eq i32 %9, %0
  %m_kind.i.i.i.i.i27 = getelementptr inbounds i8, ptr %2, i64 4
  %10 = load i32, ptr %m_kind.i.i.i.i.i27, align 4
  %cmp2.i.i.i.i.i28 = icmp eq i32 %10, 7
  %11 = select i1 %cmp.i.i.i.i.i26, i1 %cmp2.i.i.i.i.i28, i1 false
  br i1 %11, label %lor.end, label %_ZNK17array_recognizers13is_differenceEP4expr.exit

_ZNK17array_recognizers13is_differenceEP4expr.exit: ; preds = %_ZNK17array_recognizers12is_intersectEP4expr.exit
  %12 = load i32, ptr %2, align 8
  %cmp.i.i.i.i.i38 = icmp eq i32 %12, %0
  %m_kind.i.i.i.i.i39 = getelementptr inbounds i8, ptr %2, i64 4
  %13 = load i32, ptr %m_kind.i.i.i.i.i39, align 4
  %cmp2.i.i.i.i.i40 = icmp eq i32 %13, 8
  %14 = select i1 %cmp.i.i.i.i.i38, i1 %cmp2.i.i.i.i.i40, i1 false
  br i1 %14, label %lor.end, label %land.rhs.i.i.i.i49

land.rhs.i.i.i.i49:                               ; preds = %_ZNK17array_recognizers13is_differenceEP4expr.exit
  %15 = load i32, ptr %2, align 8
  %cmp.i.i.i.i.i50 = icmp eq i32 %15, %0
  %m_kind.i.i.i.i.i51 = getelementptr inbounds i8, ptr %2, i64 4
  %16 = load i32, ptr %m_kind.i.i.i.i.i51, align 4
  %cmp2.i.i.i.i.i52 = icmp eq i32 %16, 9
  %17 = select i1 %cmp.i.i.i.i.i50, i1 %cmp2.i.i.i.i.i52, i1 false
  br label %lor.end

lor.end:                                          ; preds = %land.rhs.i.i, %land.rhs.i.i.i.i49, %entry, %_ZNK17array_recognizers13is_differenceEP4expr.exit, %_ZNK17array_recognizers12is_intersectEP4expr.exit, %_ZNK17array_recognizers8is_unionEP4expr.exit, %_ZNK17array_recognizers6is_mapEP4expr.exit
  %18 = phi i1 [ true, %_ZNK17array_recognizers13is_differenceEP4expr.exit ], [ true, %_ZNK17array_recognizers12is_intersectEP4expr.exit ], [ true, %_ZNK17array_recognizers8is_unionEP4expr.exit ], [ true, %_ZNK17array_recognizers6is_mapEP4expr.exit ], [ %17, %land.rhs.i.i.i.i49 ], [ false, %entry ], [ false, %land.rhs.i.i ]
  ret i1 %18
}